target datalayout = "e-m:e-p270:32:32-p271:32:32-p272:64:64-i64:64-f80:128-n8:16:32:64-S128"
target triple = "x86_64-pc-linux-gnu"

@.str = private unnamed_addr constant [3 x i8] c"%d\00", align 1
@.str.1 = private unnamed_addr constant [3 x i8] c"%s\00", align 1
@.str.2 = private unnamed_addr constant [2 x i8] c"0\00", align 1

; Function Attrs: noinline nounwind uwtable
define dso_local i32 @main() #0 {
  %1 = alloca i32, align 4
  %2 = alloca i32, align 4
  %3 = alloca i32, align 4
  %4 = alloca i32, align 4
  %5 = alloca i32, align 4
  %6 = alloca i32, align 4
  %7 = alloca i32, align 4
  %8 = alloca i32, align 4
  %9 = alloca i32, align 4
  %10 = alloca [40 x i32], align 16
  %11 = alloca [40 x i8], align 16
  %12 = alloca [40 x i8], align 16
  %13 = alloca [40 x i8], align 16
  %14 = alloca i32, align 4
  %15 = alloca i32, align 4
  %16 = alloca i32, align 4
  %17 = alloca i32, align 4
  %18 = alloca i32, align 4
  store i32 0, i32* %1, align 4
  store i32 0, i32* %4, align 4
  %19 = call i32 (i8*, ...) @__isoc99_scanf(i8* getelementptr inbounds ([3 x i8], [3 x i8]* @.str, i64 0, i64 0), i32* %2)
  %20 = getelementptr inbounds [40 x i8], [40 x i8]* %11, i64 0, i64 0
  %21 = call i32 (i8*, ...) @__isoc99_scanf(i8* getelementptr inbounds ([3 x i8], [3 x i8]* @.str.1, i64 0, i64 0), i8* %20)
  %22 = call i32 (i8*, ...) @__isoc99_scanf(i8* getelementptr inbounds ([3 x i8], [3 x i8]* @.str, i64 0, i64 0), i32* %3)
  %23 = getelementptr inbounds [40 x i8], [40 x i8]* %11, i64 0, i64 0
  %24 = call i64 @strlen(i8* %23) #3
  %25 = trunc i64 %24 to i32
  store i32 %25, i32* %15, align 4
  store i32 0, i32* %14, align 4
  br label %26

26:                                               ; preds = %44, %0
  %27 = load i32, i32* %14, align 4
  %28 = sext i32 %27 to i64
  %29 = getelementptr inbounds [40 x i8], [40 x i8]* %11, i64 0, i64 %28
  %30 = load i8, i8* %29, align 1
  %31 = sext i8 %30 to i32
  %32 = icmp ne i32 %31, 0
  br i1 %32, label %33, label %47

33:                                               ; preds = %26
  %34 = load i32, i32* %14, align 4
  %35 = sext i32 %34 to i64
  %36 = getelementptr inbounds [40 x i8], [40 x i8]* %11, i64 0, i64 %35
  %37 = load i8, i8* %36, align 1
  %38 = load i32, i32* %15, align 4
  %39 = load i32, i32* %14, align 4
  %40 = sub nsw i32 %38, %39
  %41 = sub nsw i32 %40, 1
  %42 = sext i32 %41 to i64
  %43 = getelementptr inbounds [40 x i8], [40 x i8]* %12, i64 0, i64 %42
  store i8 %37, i8* %43, align 1
  br label %44

44:                                               ; preds = %33
  %45 = load i32, i32* %14, align 4
  %46 = add nsw i32 %45, 1
  store i32 %46, i32* %14, align 4
  br label %26

47:                                               ; preds = %26
  %48 = load i32, i32* %15, align 4
  %49 = sext i32 %48 to i64
  %50 = getelementptr inbounds [40 x i8], [40 x i8]* %12, i64 0, i64 %49
  store i8 0, i8* %50, align 1
  store i32 0, i32* %5, align 4
  br label %51

51:                                               ; preds = %112, %47
  %52 = load i32, i32* %5, align 4
  %53 = sext i32 %52 to i64
  %54 = getelementptr inbounds [40 x i8], [40 x i8]* %12, i64 0, i64 %53
  %55 = load i8, i8* %54, align 1
  %56 = sext i8 %55 to i32
  %57 = icmp ne i32 %56, 0
  br i1 %57, label %58, label %115

58:                                               ; preds = %51
  %59 = load i32, i32* %5, align 4
  %60 = sext i32 %59 to i64
  %61 = getelementptr inbounds [40 x i8], [40 x i8]* %12, i64 0, i64 %60
  %62 = load i8, i8* %61, align 1
  %63 = sext i8 %62 to i32
  %64 = icmp sge i32 %63, 97
  br i1 %64, label %65, label %72

65:                                               ; preds = %58
  %66 = load i32, i32* %5, align 4
  %67 = sext i32 %66 to i64
  %68 = getelementptr inbounds [40 x i8], [40 x i8]* %12, i64 0, i64 %67
  %69 = load i8, i8* %68, align 1
  %70 = sext i8 %69 to i32
  %71 = sub nsw i32 %70, 87
  store i32 %71, i32* %6, align 4
  br label %94

72:                                               ; preds = %58
  %73 = load i32, i32* %5, align 4
  %74 = sext i32 %73 to i64
  %75 = getelementptr inbounds [40 x i8], [40 x i8]* %12, i64 0, i64 %74
  %76 = load i8, i8* %75, align 1
  %77 = sext i8 %76 to i32
  %78 = icmp sge i32 %77, 65
  br i1 %78, label %79, label %86

79:                                               ; preds = %72
  %80 = load i32, i32* %5, align 4
  %81 = sext i32 %80 to i64
  %82 = getelementptr inbounds [40 x i8], [40 x i8]* %12, i64 0, i64 %81
  %83 = load i8, i8* %82, align 1
  %84 = sext i8 %83 to i32
  %85 = sub nsw i32 %84, 55
  store i32 %85, i32* %6, align 4
  br label %93

86:                                               ; preds = %72
  %87 = load i32, i32* %5, align 4
  %88 = sext i32 %87 to i64
  %89 = getelementptr inbounds [40 x i8], [40 x i8]* %12, i64 0, i64 %88
  %90 = load i8, i8* %89, align 1
  %91 = sext i8 %90 to i32
  %92 = sub nsw i32 %91, 48
  store i32 %92, i32* %6, align 4
  br label %93

93:                                               ; preds = %86, %79
  br label %94

94:                                               ; preds = %93, %65
  store i32 1, i32* %9, align 4
  store i32 1, i32* %16, align 4
  br label %95

95:                                               ; preds = %103, %94
  %96 = load i32, i32* %16, align 4
  %97 = load i32, i32* %5, align 4
  %98 = icmp sle i32 %96, %97
  br i1 %98, label %99, label %106

99:                                               ; preds = %95
  %100 = load i32, i32* %9, align 4
  %101 = load i32, i32* %2, align 4
  %102 = mul nsw i32 %100, %101
  store i32 %102, i32* %9, align 4
  br label %103

103:                                              ; preds = %99
  %104 = load i32, i32* %16, align 4
  %105 = add nsw i32 %104, 1
  store i32 %105, i32* %16, align 4
  br label %95

106:                                              ; preds = %95
  %107 = load i32, i32* %9, align 4
  %108 = load i32, i32* %6, align 4
  %109 = mul nsw i32 %107, %108
  %110 = load i32, i32* %4, align 4
  %111 = add nsw i32 %109, %110
  store i32 %111, i32* %4, align 4
  br label %112

112:                                              ; preds = %106
  %113 = load i32, i32* %5, align 4
  %114 = add nsw i32 %113, 1
  store i32 %114, i32* %5, align 4
  br label %51

115:                                              ; preds = %51
  %116 = load i32, i32* %4, align 4
  %117 = icmp eq i32 %116, 0
  br i1 %117, label %118, label %120

118:                                              ; preds = %115
  %119 = call i32 @puts(i8* getelementptr inbounds ([2 x i8], [2 x i8]* @.str.2, i64 0, i64 0))
  br label %188

120:                                              ; preds = %115
  store i32 0, i32* %7, align 4
  br label %121

121:                                              ; preds = %134, %120
  %122 = load i32, i32* %4, align 4
  %123 = icmp ne i32 %122, 0
  br i1 %123, label %124, label %137

124:                                              ; preds = %121
  %125 = load i32, i32* %4, align 4
  %126 = load i32, i32* %3, align 4
  %127 = srem i32 %125, %126
  %128 = load i32, i32* %7, align 4
  %129 = sext i32 %128 to i64
  %130 = getelementptr inbounds [40 x i32], [40 x i32]* %10, i64 0, i64 %129
  store i32 %127, i32* %130, align 4
  %131 = load i32, i32* %4, align 4
  %132 = load i32, i32* %3, align 4
  %133 = sdiv i32 %131, %132
  store i32 %133, i32* %4, align 4
  br label %134

134:                                              ; preds = %124
  %135 = load i32, i32* %7, align 4
  %136 = add nsw i32 %135, 1
  store i32 %136, i32* %7, align 4
  br label %121

137:                                              ; preds = %121
  %138 = load i32, i32* %7, align 4
  store i32 %138, i32* %18, align 4
  store i32 0, i32* %17, align 4
  br label %139

139:                                              ; preds = %179, %137
  %140 = load i32, i32* %17, align 4
  %141 = load i32, i32* %18, align 4
  %142 = icmp slt i32 %140, %141
  br i1 %142, label %143, label %182

143:                                              ; preds = %139
  %144 = load i32, i32* %17, align 4
  %145 = sext i32 %144 to i64
  %146 = getelementptr inbounds [40 x i32], [40 x i32]* %10, i64 0, i64 %145
  %147 = load i32, i32* %146, align 4
  %148 = icmp sgt i32 %147, 9
  br i1 %148, label %149, label %158

149:                                              ; preds = %143
  %150 = load i32, i32* %17, align 4
  %151 = sext i32 %150 to i64
  %152 = getelementptr inbounds [40 x i32], [40 x i32]* %10, i64 0, i64 %151
  %153 = load i32, i32* %152, align 4
  %154 = add nsw i32 %153, 55
  %155 = load i32, i32* %17, align 4
  %156 = sext i32 %155 to i64
  %157 = getelementptr inbounds [40 x i32], [40 x i32]* %10, i64 0, i64 %156
  store i32 %154, i32* %157, align 4
  br label %167

158:                                              ; preds = %143
  %159 = load i32, i32* %17, align 4
  %160 = sext i32 %159 to i64
  %161 = getelementptr inbounds [40 x i32], [40 x i32]* %10, i64 0, i64 %160
  %162 = load i32, i32* %161, align 4
  %163 = add nsw i32 %162, 48
  %164 = load i32, i32* %17, align 4
  %165 = sext i32 %164 to i64
  %166 = getelementptr inbounds [40 x i32], [40 x i32]* %10, i64 0, i64 %165
  store i32 %163, i32* %166, align 4
  br label %167

167:                                              ; preds = %158, %149
  %168 = load i32, i32* %17, align 4
  %169 = sext i32 %168 to i64
  %170 = getelementptr inbounds [40 x i32], [40 x i32]* %10, i64 0, i64 %169
  %171 = load i32, i32* %170, align 4
  %172 = trunc i32 %171 to i8
  %173 = load i32, i32* %18, align 4
  %174 = load i32, i32* %17, align 4
  %175 = sub nsw i32 %173, %174
  %176 = sub nsw i32 %175, 1
  %177 = sext i32 %176 to i64
  %178 = getelementptr inbounds [40 x i8], [40 x i8]* %13, i64 0, i64 %177
  store i8 %172, i8* %178, align 1
  br label %179

179:                                              ; preds = %167
  %180 = load i32, i32* %17, align 4
  %181 = add nsw i32 %180, 1
  store i32 %181, i32* %17, align 4
  br label %139

182:                                              ; preds = %139
  %183 = load i32, i32* %18, align 4
  %184 = sext i32 %183 to i64
  %185 = getelementptr inbounds [40 x i8], [40 x i8]* %13, i64 0, i64 %184
  store i8 0, i8* %185, align 1
  %186 = getelementptr inbounds [40 x i8], [40 x i8]* %13, i64 0, i64 0
  %187 = call i32 @puts(i8* %186)
  br label %188

188:                                              ; preds = %182, %118
  %189 = call i32 @getchar()
  %190 = call i32 @getchar()
  %191 = call i32 @getchar()
  %192 = call i32 @getchar()
  ret i32 0
}